; Function Attrs: mustprogress nounwind uwtable
define hidden void @_ZN11StringDedup4Stat16report_phase_endEPKcP12TimeIntervalI30CompositeCounterRepresentation29CompositeElapsedCounterSourceE(ptr nocapture noundef nonnull readonly align 8 dereferenceable(248) %0, ptr noundef %1, ptr nocapture noundef %2) local_unnamed_addr #2 align 2 {
  %4 = tail call { i64, i64 } @_ZN29CompositeElapsedCounterSource3nowEv() #7
  %5 = extractvalue { i64, i64 } %4, 0
  %6 = extractvalue { i64, i64 } %4, 1
  %7 = getelementptr inbounds i8, ptr %0, i64 168
  %8 = load i64, ptr %7, align 8
  %9 = sub nsw i64 %5, %8
  %10 = getelementptr inbounds i8, ptr %0, i64 176
  %11 = load i64, ptr %10, align 8
  %12 = sub nsw i64 %6, %11
  %13 = load i64, ptr %2, align 8
  %14 = add nsw i64 %13, %9
  store i64 %14, ptr %2, align 8
  %15 = getelementptr inbounds i8, ptr %2, i64 8
  %16 = load i64, ptr %15, align 8
  %17 = add nsw i64 %16, %12
  store i64 %17, ptr %15, align 8
  %18 = load volatile ptr, ptr getelementptr inbounds (i8, ptr @_ZN16LogTagSetMappingILN6LogTag4typeE148ELS1_114ELS1_0ELS1_0ELS1_0ELS1_0EE7_tagsetE, i64 56), align 8
  %.not = icmp eq ptr %18, null
  br i1 %.not, label %22, label %19

19:                                               ; preds = %3
  %20 = tail call noundef double @_ZN29CompositeElapsedCounterSource7secondsE7PairRepIllE(i64 %14, i64 %17) #7
  %21 = fmul double %20, 1.000000e+03
  tail call void (ptr, ...) @_ZN7LogImplILN6LogTag4typeE148ELS1_114ELS1_0ELS1_0ELS1_0ELS1_0EE5writeILN8LogLevel4typeE2EEEvPKcz(ptr noundef nonnull @.str.7, ptr noundef %1, double noundef %21)
  br label %22

22:                                               ; preds = %3, %19
  ret void
}